Certificate:
    Data:
        Version: 3 (0x2)
        Serial Number:
            7e:ac:b2:41:8a:a0:09:2b:aa:ff:28:4a:de:42:72:3e
        Signature Algorithm: sha256WithRSAEncryption
        Issuer: C=US, ST=California, L=San Francisco, O=Copyleft Certificate Co, CN=Intermediate
        Validity
            Not Before: Apr  8 13:52:27 2021 GMT
            Not After : Jul 12 13:52:27 2023 GMT
        Subject: C=US, ST=California, L=San Francisco, O=Copyleft Certificate Co, CN=domain.com
        Subject Public Key Info:
            Public Key Algorithm: rsaEncryption
                RSA Public-Key: (2048 bit)
                Modulus:
                    00:f9:34:9f:95:d2:c7:92:6f:20:e4:c5:78:0a:48:
                    92:38:92:39:19:80:54:c0:61:65:10:37:a4:02:ce:
                    02:36:33:c1:e8:50:6e:b4:21:50:70:de:24:db:7f:
                    4c:cf:93:d4:f2:02:03:3e:03:a0:aa:12:e8:ef:39:
                    5a:86:92:14:db:de:14:76:e0:d1:0c:d5:2f:5c:7d:
                    34:92:e8:5a:af:fa:9a:47:fc:54:03:12:5f:6a:c4:
                    1b:31:54:94:2c:fa:e2:13:89:16:1e:e6:49:ec:59:
                    4e:69:57:2a:f4:8a:fc:e6:b2:45:95:07:a8:58:b0:
                    7e:76:53:5b:90:e5:6f:07:6a:06:48:45:f5:7c:89:
                    d4:9a:4b:13:f4:fb:e1:83:7d:06:f2:de:6f:b7:7b:
                    f1:c1:44:41:78:8e:f0:d3:50:46:21:db:58:10:da:
                    c7:09:42:70:2d:57:ef:06:3e:6e:48:ad:98:bd:a1:
                    9d:1a:d3:de:93:4f:98:ba:6d:71:e2:d3:54:4f:63:
                    97:64:35:ef:af:0b:64:fc:3d:e6:c5:43:c2:8c:40:
                    25:25:c5:d8:1c:41:01:f3:3b:de:6d:2d:60:33:08:
                    f6:02:cf:ee:91:8e:25:df:cf:b2:50:fd:65:0e:a8:
                    67:2e:8d:62:47:1b:16:76:a6:76:89:e5:d3:e1:81:
                    95:af
                Exponent: 65537 (0x10001)
        X509v3 extensions:
            X509v3 Basic Constraints: 
                CA:FALSE
            X509v3 Subject Key Identifier: 
                1E:F4:DE:97:82:D6:F7:06:3F:13:89:E4:28:98:69:90:E0:8D:67:E0
            X509v3 Authority Key Identifier: 
                keyid:E7:BF:B7:2E:E4:D4:02:A1:40:D9:2E:BD:DA:6F:BC:AF:A0:33:58:A4
                DirName:/C=US/ST=California/L=San Francisco/O=Copyleft Certificate Co/CN=RootCA
                serial:05:6A:D6:62:62:14:87:F6:DD:46:8B:C0:F8:EB:0F:AE

            X509v3 Extended Key Usage: 
                TLS Web Server Authentication
            X509v3 Key Usage: 
                Digital Signature, Key Encipherment
            X509v3 Subject Alternative Name: 
                DNS:domain.com
    Signature Algorithm: sha256WithRSAEncryption
         9c:0c:49:9f:bb:8f:16:f8:fb:eb:f3:e2:ce:72:74:ff:02:ca:
         ed:e0:08:6d:a2:32:c5:af:52:a6:c0:bc:bb:08:3c:71:fe:bc:
         4f:9b:15:49:25:ce:af:be:6e:38:88:ea:ff:a1:d5:5e:98:b9:
         87:54:fd:06:99:34:5b:2a:af:e9:b6:ce:5f:00:d1:3a:01:dc:
         29:5c:94:7c:6f:12:98:11:3e:93:3b:4e:91:64:47:af:af:69:
         cd:1a:3c:8b:59:cb:12:ae:56:0f:c8:95:1d:f4:c9:b0:e2:c6:
         9e:b8:fd:d1:35:04:e1:b5:92:bc:b8:66:94:13:f4:66:40:59:
         ad:1a:9f:5e:e3:ff:4f:f2:ca:9a:0f:aa:52:a7:9d:4e:8a:e9:
         2a:cc:65:be:9c:df:6a:04:1f:23:9e:73:80:54:43:03:77:93:
         86:d8:8b:29:7a:ac:b9:5a:16:64:47:a2:3c:fa:b3:02:6f:5f:
         6b:d7:97:5b:45:12:c3:97:6d:fc:b0:be:05:1f:dd:6f:ca:8a:
         e4:4e:ee:30:6c:78:ab:83:31:31:a7:8e:f4:2c:13:a4:e1:f7:
         44:99:6d:b5:fc:b6:d9:e1:e7:28:5e:de:4a:6c:a6:b7:02:0f:
         e7:cd:00:63:97:0b:a4:72:0e:34:a6:63:6c:f2:79:86:32:b8:
         06:1a:41:54
-----BEGIN CERTIFICATE-----
MIIEgDCCA2igAwIBAgIQfqyyQYqgCSuq/yhK3kJyPjANBgkqhkiG9w0BAQsFADBz
MQswCQYDVQQGEwJVUzETMBEGA1UECAwKQ2FsaWZvcm5pYTEWMBQGA1UEBwwNU2Fu
IEZyYW5jaXNjbzEgMB4GA1UECgwXQ29weWxlZnQgQ2VydGlmaWNhdGUgQ28xFTAT
BgNVBAMMDEludGVybWVkaWF0ZTAeFw0yMTA0MDgxMzUyMjdaFw0yMzA3MTIxMzUy
MjdaMHExCzAJBgNVBAYTAlVTMRMwEQYDVQQIDApDYWxpZm9ybmlhMRYwFAYDVQQH
DA1TYW4gRnJhbmNpc2NvMSAwHgYDVQQKDBdDb3B5bGVmdCBDZXJ0aWZpY2F0ZSBD
bzETMBEGA1UEAwwKZG9tYWluLmNvbTCCASIwDQYJKoZIhvcNAQEBBQADggEPADCC
AQoCggEBAPk0n5XSx5JvIOTFeApIkjiSORmAVMBhZRA3pALOAjYzwehQbrQhUHDe
JNt/TM+T1PICAz4DoKoS6O85WoaSFNveFHbg0QzVL1x9NJLoWq/6mkf8VAMSX2rE
GzFUlCz64hOJFh7mSexZTmlXKvSK/OayRZUHqFiwfnZTW5DlbwdqBkhF9XyJ1JpL
E/T74YN9BvLeb7d78cFEQXiO8NNQRiHbWBDaxwlCcC1X7wY+bkitmL2hnRrT3pNP
mLptceLTVE9jl2Q1768LZPw95sVDwoxAJSXF2BxBAfM73m0tYDMI9gLP7pGOJd/P
slD9ZQ6oZy6NYkcbFnamdonl0+GBla8CAwEAAaOCARAwggEMMAkGA1UdEwQCMAAw
HQYDVR0OBBYEFB703peC1vcGPxOJ5CiYaZDgjWfgMIGmBgNVHSMEgZ4wgZuAFOe/
ty7k1AKhQNkuvdpvvK+gM1ikoXGkbzBtMQswCQYDVQQGEwJVUzETMBEGA1UECAwK
Q2FsaWZvcm5pYTEWMBQGA1UEBwwNU2FuIEZyYW5jaXNjbzEgMB4GA1UECgwXQ29w
eWxlZnQgQ2VydGlmaWNhdGUgQ28xDzANBgNVBAMMBlJvb3RDQYIQBWrWYmIUh/bd
RovA+OsPrjATBgNVHSUEDDAKBggrBgEFBQcDATALBgNVHQ8EBAMCBaAwFQYDVR0R
BA4wDIIKZG9tYWluLmNvbTANBgkqhkiG9w0BAQsFAAOCAQEAnAxJn7uPFvj76/Pi
znJ0/wLK7eAIbaIyxa9SpsC8uwg8cf68T5sVSSXOr75uOIjq/6HVXpi5h1T9Bpk0
Wyqv6bbOXwDROgHcKVyUfG8SmBE+kztOkWRHr69pzRo8i1nLEq5WD8iVHfTJsOLG
nrj90TUE4bWSvLhmlBP0ZkBZrRqfXuP/T/LKmg+qUqedTorpKsxlvpzfagQfI55z
gFRDA3eThtiLKXqsuVoWZEeiPPqzAm9fa9eXW0USw5dt/LC+BR/db8qK5E7uMGx4
q4MxMaeO9CwTpOH3RJlttfy22eHnKF7eSmymtwIP580AY5cLpHIONKZjbPJ5hjK4
BhpBVA==
-----END CERTIFICATE-----
-----BEGIN CERTIFICATE-----
MIIEVTCCAz2gAwIBAgIQBWrWYmIUh/bdRovA+OsPrjANBgkqhkiG9w0BAQsFADBt
MQswCQYDVQQGEwJVUzETMBEGA1UECAwKQ2FsaWZvcm5pYTEWMBQGA1UEBwwNU2Fu
IEZyYW5jaXNjbzEgMB4GA1UECgwXQ29weWxlZnQgQ2VydGlmaWNhdGUgQ28xDzAN
BgNVBAMMBlJvb3RDQTAeFw0yMTA0MDgwNzM5MDRaFw0yMzA3MTIwNzM5MDRaMHMx
CzAJBgNVBAYTAlVTMRMwEQYDVQQIDApDYWxpZm9ybmlhMRYwFAYDVQQHDA1TYW4g
RnJhbmNpc2NvMSAwHgYDVQQKDBdDb3B5bGVmdCBDZXJ0aWZpY2F0ZSBDbzEVMBMG
A1UEAwwMSW50ZXJtZWRpYXRlMIIBIjANBgkqhkiG9w0BAQEFAAOCAQ8AMIIBCgKC
AQEA0crFCh1DoWPIgKvVNPvUFY6rshI7Mc/liXNh5N7K9PM0SiOxJIjyagXFoBSr
GnMcPG4FH5Gwwy1s9iEFAGVXKMNSbCECC+N0w1uhNAe8Bg9HhpaKN8B0nnQ8DICl
po4rXCtySHpO6xFoK9UsFxQHHdd+h684yLP5Y0JS/CKhoEjxbwi9dKBjP62ptg+6
5DKvarQFKCj/NCxcA1MFZuwG1oR6dajRdYOg04lDWtX57EJ/JUZPywGy2UkheyeF
+dxK1rPpWpE5AgMz+/ZLci5tP6jgg/F33z8gza7qk2vaRwAxTcnUzmjCRWTJhsrY
6mMR15tHKbEs7mzGUwVouHJQAQIDAQABo4HqMIHnMAwGA1UdEwQFMAMBAf8wHQYD
VR0OBBYEFOe/ty7k1AKhQNkuvdpvvK+gM1ikMIGqBgNVHSMEgaIwgZ+AFBAaDD2D
OYxCl49lgTRQX+c4Hd+SoXGkbzBtMQswCQYDVQQGEwJVUzETMBEGA1UECAwKQ2Fs
aWZvcm5pYTEWMBQGA1UEBwwNU2FuIEZyYW5jaXNjbzEgMB4GA1UECgwXQ29weWxl
ZnQgQ2VydGlmaWNhdGUgQ28xDzANBgNVBAMMBlJvb3RDQYIUO7W7RO7NFqFvUIdQ
1ajoiSIVR/cwCwYDVR0PBAQDAgEGMA0GCSqGSIb3DQEBCwUAA4IBAQAzUp4/Ape8
U4JZ9r05o6uI3O0zD9LSG9kmKvBj0MfE0zO0pbOwcfWzvq0MSxuhnz/tavW33dl4
veKhy9OlIOmzBQ5sDRfY6RklhC+lyKV3z9DQ2ol18tjwR3qHSmhUkZwX77EgYr23
ByDZ2FdlFoAfZcJw4CG1iPRITJH0Pqb8ZmERxjUHGPPLOzOnCqN2lovyKCw87OXd
gv/aTf6Kf8xJ783Y+k4OJ43Sz4Yxso2L7FED6WAJKHW/jpXkKIVrCDTCa8jktCUo
GendEoI53QJa9qGjvBS/Q14ZseMgTIPqFLuQgyhp1mPX4hEjrOgOD3MgOWEETUWt
wg4jw3Kzufdc
-----END CERTIFICATE-----
-----BEGIN CERTIFICATE-----
MIIEUzCCAzugAwIBAgIUO7W7RO7NFqFvUIdQ1ajoiSIVR/cwDQYJKoZIhvcNAQEL
BQAwbTELMAkGA1UEBhMCVVMxEzARBgNVBAgMCkNhbGlmb3JuaWExFjAUBgNVBAcM
DVNhbiBGcmFuY2lzY28xIDAeBgNVBAoMF0NvcHlsZWZ0IENlcnRpZmljYXRlIENv
MQ8wDQYDVQQDDAZSb290Q0EwHhcNMjEwNDA4MDczNTQxWhcNMzEwNDA2MDczNTQx
WjBtMQswCQYDVQQGEwJVUzETMBEGA1UECAwKQ2FsaWZvcm5pYTEWMBQGA1UEBwwN
U2FuIEZyYW5jaXNjbzEgMB4GA1UECgwXQ29weWxlZnQgQ2VydGlmaWNhdGUgQ28x
DzANBgNVBAMMBlJvb3RDQTCCASIwDQYJKoZIhvcNAQEBBQADggEPADCCAQoCggEB
AND/b6yIbGthYlYX47Lu0ltlHuo8bwE2kzI2S29+nSlXy+wjzjrduAHXG1aL7b7i
VtvN7eKC0e3EQ15FtNEbmB/Hw74s4rify/wPQaC08sCCePmwK7irSUUR/YQNckI9
WXc74IbZP342Cg3s+fxYQlUXnD1kUGnLym/cAzD/RETCKzLKDK+e/dDqc7SP+qTc
yZjop5bZv5yco3x7IZywEXQ10uv1z4/HAnri2/ZS9p+R979sEwf1hX+sqj2V+cSo
i1QD+uuI4BbtSPsUtKCy3+lU3SUGoai/VAWga4W3Y2VX/qA+AyJi5wiV5kjTmJkQ
u4ULseo2nVBl09s6C4LKfpkCAwEAAaOB6jCB5zAdBgNVHQ4EFgQUEBoMPYM5jEKX
j2WBNFBf5zgd35IwgaoGA1UdIwSBojCBn4AUEBoMPYM5jEKXj2WBNFBf5zgd35Kh
caRvMG0xCzAJBgNVBAYTAlVTMRMwEQYDVQQIDApDYWxpZm9ybmlhMRYwFAYDVQQH
DA1TYW4gRnJhbmNpc2NvMSAwHgYDVQQKDBdDb3B5bGVmdCBDZXJ0aWZpY2F0ZSBD
bzEPMA0GA1UEAwwGUm9vdENBghQ7tbtE7s0WoW9Qh1DVqOiJIhVH9zAMBgNVHRME
BTADAQH/MAsGA1UdDwQEAwIBBjANBgkqhkiG9w0BAQsFAAOCAQEAGLIaIPECCyUV
sp2opDjpNCPhQZ+9il2xe/REDN/rtrccFn3XJYVszqHnbY25A2TAIb7pa4vGdSFM
Dy7V8qI9zDsYI3syYkCCSnUVh+Ml8BlEY3EkbHR6xVA2wRDmNmWADU4sFV6bbeb7
E7hEuu0t4BLFDCnt/HVoqNMJGd24EnYoMpfRk/Oq2q9RTiXCUpzqOdALF7j4OVga
mgesHWr0Khp9M0ybFvzAlBJHADKqHiEf6ozRDcu0uQnzttPE2wlStZNyoMxdB2oo
1SNTg9CmPZ5A18TulqTZ/Apmc5mXGoSW40ZCavbgknIFO+O1FGRRPoewA+rFPqB6
hI9YKB5l6Q==
-----END CERTIFICATE-----
