Certificate:
    Data:
        Version: 3 (0x2)
        Serial Number:
            64:e2:5c:60:93:52:00:76:dd:25:fa:24:27:de:52:8f
        Signature Algorithm: sha256WithRSAEncryption
        Issuer: C=US, ST=California, L=San Francisco, O=Copyleft Certificate Co, CN=Intermediate
        Validity
            Not Before: Apr  8 07:43:33 2021 GMT
            Not After : Jul 12 07:43:33 2023 GMT
        Subject: C=US, ST=California, L=San Francisco, O=Copyleft Certificate Co, CN=valid
        Subject Public Key Info:
            Public Key Algorithm: rsaEncryption
                RSA Public-Key: (2048 bit)
                Modulus:
                    00:bf:11:c0:68:3b:a3:fd:c3:86:d2:ea:1b:98:38:
                    79:f1:40:00:57:29:0d:14:71:d0:23:0e:e5:e9:19:
                    7c:5c:d8:92:cd:df:cb:e3:da:33:d0:e9:79:12:b7:
                    ca:33:fe:57:b7:5d:ae:c6:66:be:4d:8e:4a:1a:a7:
                    f2:f1:eb:74:8d:92:b4:25:4f:46:6c:08:50:ba:04:
                    3c:c2:53:41:78:a8:2e:6c:89:58:7d:38:33:7a:d3:
                    86:7e:9d:ac:83:b7:29:21:f4:b7:83:74:64:23:2c:
                    f6:e4:b6:8c:79:e0:76:45:0c:48:f0:70:3b:3c:23:
                    87:cd:e8:f9:b0:6d:b5:2f:cc:0b:b4:35:3d:ba:e5:
                    ef:91:7c:6c:36:4b:85:ff:66:3b:3f:67:f8:e2:4d:
                    35:1d:bf:35:80:46:71:3d:0e:8c:02:ad:70:2c:99:
                    08:d2:b3:61:1b:d2:08:9d:58:42:cf:cd:d4:31:e6:
                    6d:e8:28:90:1b:8b:e4:2e:34:db:5b:22:8b:87:f2:
                    0c:a1:1b:2a:94:fc:3f:6b:f8:82:94:08:5d:bc:4d:
                    07:a3:d9:72:f6:54:52:b2:2e:6d:47:56:16:02:76:
                    5d:ae:aa:40:14:90:50:44:e9:8a:fb:3c:f5:f4:86:
                    6b:79:81:99:31:c3:ce:c2:86:6b:70:a9:40:24:13:
                    ff:0f
                Exponent: 65537 (0x10001)
        X509v3 extensions:
            X509v3 Basic Constraints: 
                CA:FALSE
            X509v3 Subject Key Identifier: 
                C1:AC:DE:CF:EA:80:A4:96:5F:6E:87:F0:2F:BC:AF:BA:5B:D1:D9:8D
            X509v3 Authority Key Identifier: 
                keyid:E7:BF:B7:2E:E4:D4:02:A1:40:D9:2E:BD:DA:6F:BC:AF:A0:33:58:A4
                DirName:/C=US/ST=California/L=San Francisco/O=Copyleft Certificate Co/CN=RootCA
                serial:05:6A:D6:62:62:14:87:F6:DD:46:8B:C0:F8:EB:0F:AE

            X509v3 Extended Key Usage: 
                TLS Web Client Authentication
            X509v3 Key Usage: 
                Digital Signature
    Signature Algorithm: sha256WithRSAEncryption
         22:99:dc:bc:4b:0b:13:d6:96:bd:2a:90:07:90:a1:e2:b2:08:
         db:87:d0:4d:9f:08:ba:fc:e2:63:1e:bd:32:56:f8:65:e6:4a:
         87:3c:a7:23:0e:98:7b:9c:eb:30:24:8c:b2:3d:a7:51:7e:99:
         67:fc:c9:9f:89:83:91:7d:0f:4e:73:66:7c:17:31:c7:ee:27:
         e2:02:8a:d1:1e:eb:1c:b5:25:26:27:51:10:f9:ee:86:52:84:
         68:a8:d8:c0:5d:2f:bb:8d:b3:f4:1d:e0:ee:8d:6a:e9:b1:dd:
         15:33:e5:68:65:6d:8c:11:9d:a6:33:2a:9c:b6:50:ba:b8:29:
         c3:10:d1:20:db:25:04:97:5c:28:1d:83:97:c4:aa:47:0b:ba:
         ff:7b:78:0c:64:f5:79:18:12:97:d3:c4:e6:02:1d:53:f5:a3:
         7f:21:36:11:9a:a4:d9:f4:21:26:19:a9:96:a7:39:f2:12:5c:
         c7:60:58:ab:0b:b7:09:83:af:78:41:d0:53:f7:53:5e:42:02:
         98:b7:8a:61:3d:7d:c7:9f:c4:72:de:c2:ee:ab:d4:ca:7f:23:
         4a:08:b1:06:65:de:20:6d:ea:f1:1d:65:ef:f8:28:1f:11:ea:
         b0:48:a6:4f:69:7d:f8:f2:58:ea:f4:02:21:7e:36:f9:28:56:
         81:dd:6f:bc
-----BEGIN CERTIFICATE-----
MIIEYjCCA0qgAwIBAgIQZOJcYJNSAHbdJfokJ95SjzANBgkqhkiG9w0BAQsFADBz
MQswCQYDVQQGEwJVUzETMBEGA1UECAwKQ2FsaWZvcm5pYTEWMBQGA1UEBwwNU2Fu
IEZyYW5jaXNjbzEgMB4GA1UECgwXQ29weWxlZnQgQ2VydGlmaWNhdGUgQ28xFTAT
BgNVBAMMDEludGVybWVkaWF0ZTAeFw0yMTA0MDgwNzQzMzNaFw0yMzA3MTIwNzQz
MzNaMGwxCzAJBgNVBAYTAlVTMRMwEQYDVQQIDApDYWxpZm9ybmlhMRYwFAYDVQQH
DA1TYW4gRnJhbmNpc2NvMSAwHgYDVQQKDBdDb3B5bGVmdCBDZXJ0aWZpY2F0ZSBD
bzEOMAwGA1UEAwwFdmFsaWQwggEiMA0GCSqGSIb3DQEBAQUAA4IBDwAwggEKAoIB
AQC/EcBoO6P9w4bS6huYOHnxQABXKQ0UcdAjDuXpGXxc2JLN38vj2jPQ6XkSt8oz
/le3Xa7GZr5Njkoap/Lx63SNkrQlT0ZsCFC6BDzCU0F4qC5siVh9ODN604Z+nayD
tykh9LeDdGQjLPbktox54HZFDEjwcDs8I4fN6PmwbbUvzAu0NT265e+RfGw2S4X/
Zjs/Z/jiTTUdvzWARnE9DowCrXAsmQjSs2Eb0gidWELPzdQx5m3oKJAbi+QuNNtb
IouH8gyhGyqU/D9r+IKUCF28TQej2XL2VFKyLm1HVhYCdl2uqkAUkFBE6Yr7PPX0
hmt5gZkxw87ChmtwqUAkE/8PAgMBAAGjgfgwgfUwCQYDVR0TBAIwADAdBgNVHQ4E
FgQUwazez+qApJZfbofwL7yvulvR2Y0wgaYGA1UdIwSBnjCBm4AU57+3LuTUAqFA
2S692m+8r6AzWKShcaRvMG0xCzAJBgNVBAYTAlVTMRMwEQYDVQQIDApDYWxpZm9y
bmlhMRYwFAYDVQQHDA1TYW4gRnJhbmNpc2NvMSAwHgYDVQQKDBdDb3B5bGVmdCBD
ZXJ0aWZpY2F0ZSBDbzEPMA0GA1UEAwwGUm9vdENBghAFatZiYhSH9t1Gi8D46w+u
MBMGA1UdJQQMMAoGCCsGAQUFBwMCMAsGA1UdDwQEAwIHgDANBgkqhkiG9w0BAQsF
AAOCAQEAIpncvEsLE9aWvSqQB5Ch4rII24fQTZ8IuvziYx69Mlb4ZeZKhzynIw6Y
e5zrMCSMsj2nUX6ZZ/zJn4mDkX0PTnNmfBcxx+4n4gKK0R7rHLUlJidREPnuhlKE
aKjYwF0vu42z9B3g7o1q6bHdFTPlaGVtjBGdpjMqnLZQurgpwxDRINslBJdcKB2D
l8SqRwu6/3t4DGT1eRgSl9PE5gIdU/WjfyE2EZqk2fQhJhmplqc58hJcx2BYqwu3
CYOveEHQU/dTXkICmLeKYT19x5/Ect7C7qvUyn8jSgixBmXeIG3q8R1l7/goHxHq
sEimT2l9+PJY6vQCIX42+ShWgd1vvA==
-----END CERTIFICATE-----
